target datalayout = "e-m:e-p270:32:32-p271:32:32-p272:64:64-i64:64-i128:128-f80:128-n8:16:32:64-S128"
target triple = "x86_64-pc-linux-gnu"

%struct.Clu_Man_t_ = type { i32, i32, i32, i32, i32, i32, i32, i32, i32, i32, i32, i32, i32, i32, i32, ptr, ptr, ptr, ptr, i32, i32, i32, ptr, ptr, ptr, i32, i32, i32, i32, ptr, ptr, ptr, i32, i32 }
%struct.Cnf_Dat_t_ = type { ptr, i32, i32, i32, ptr, ptr, ptr, ptr, ptr, ptr }
%struct.Aig_Obj_t_ = type { %union.anon, ptr, ptr, i64, i32, i32, %union.anon.0 }
%union.anon = type { ptr }
%union.anon.0 = type { ptr }
%struct.Aig_Man_t_ = type { ptr, ptr, ptr, ptr, ptr, ptr, ptr, %struct.Aig_Obj_t_, i32, i32, i32, i32, i32, i32, [7 x i32], i32, ptr, i32, ptr, i32, ptr, i32, i32, i32, ptr, i32, i32, i32, i32, i32, ptr, ptr, i32, ptr, ptr, i32, ptr, ptr, i32, i32, i32, ptr, ptr, ptr, ptr, ptr, ptr, ptr, ptr, ptr, ptr, ptr, ptr, ptr, ptr, i32, ptr, ptr, ptr, ptr, i32, i64, i64, i64, ptr, ptr }
%struct.Vec_Ptr_t_ = type { i32, i32, ptr }

; Function Attrs: inlinehint nounwind uwtable
define internal ptr @Vec_PtrEntry(ptr noundef %0, i32 noundef %1) #2 {
  %3 = alloca ptr, align 8
  %4 = alloca i32, align 4
  store ptr %0, ptr %3, align 8, !tbaa !109
  store i32 %1, ptr %4, align 4, !tbaa !21
  %5 = load ptr, ptr %3, align 8, !tbaa !109
  %6 = getelementptr inbounds nuw %struct.Vec_Ptr_t_, ptr %5, i32 0, i32 2
  %7 = load ptr, ptr %6, align 8, !tbaa !112
  %8 = load i32, ptr %4, align 4, !tbaa !21
  %9 = sext i32 %8 to i64
  %10 = getelementptr inbounds ptr, ptr %7, i64 %9
  %11 = load ptr, ptr %10, align 8, !tbaa !113
  ret ptr %11
}

; Function Attrs: inlinehint nounwind uwtable
define internal i32 @toLitCond(i32 noundef %0, i32 noundef %1) #2 {
  %3 = alloca i32, align 4
  %4 = alloca i32, align 4
  store i32 %0, ptr %3, align 4, !tbaa !21
  store i32 %1, ptr %4, align 4, !tbaa !21
  %5 = load i32, ptr %3, align 4, !tbaa !21
  %6 = load i32, ptr %3, align 4, !tbaa !21
  %7 = add nsw i32 %5, %6
  %8 = load i32, ptr %4, align 4, !tbaa !21
  %9 = icmp ne i32 %8, 0
  %10 = zext i1 %9 to i32
  %11 = add nsw i32 %7, %10
  ret i32 %11
}

; Function Attrs: inlinehint nounwind uwtable
define internal ptr @Aig_ManCo(ptr noundef %0, i32 noundef %1) #2 {
  %3 = alloca ptr, align 8
  %4 = alloca i32, align 4
  store ptr %0, ptr %3, align 8, !tbaa !34
  store i32 %1, ptr %4, align 4, !tbaa !21
  %5 = load ptr, ptr %3, align 8, !tbaa !34
  %6 = getelementptr inbounds nuw %struct.Aig_Man_t_, ptr %5, i32 0, i32 3
  %7 = load ptr, ptr %6, align 8, !tbaa !35
  %8 = load i32, ptr %4, align 4, !tbaa !21
  %9 = call ptr @Vec_PtrEntry(ptr noundef %7, i32 noundef %8)
  ret ptr %9
}

; Function Attrs: nounwind uwtable
define i32 @Fra_ClausRunBmc(ptr noundef %0) #0 {
  %2 = alloca i32, align 4
  %3 = alloca ptr, align 8
  %4 = alloca ptr, align 8
  %5 = alloca [2 x i32], align 4
  %6 = alloca i32, align 4
  %7 = alloca i32, align 4
  %8 = alloca i32, align 4
  %9 = alloca i32, align 4
  store ptr %0, ptr %3, align 8, !tbaa !3
  call void @llvm.lifetime.start.p0(i64 8, ptr %4) #11
  call void @llvm.lifetime.start.p0(i64 8, ptr %5) #11
  call void @llvm.lifetime.start.p0(i64 4, ptr %6) #11
  call void @llvm.lifetime.start.p0(i64 4, ptr %7) #11
  call void @llvm.lifetime.start.p0(i64 4, ptr %8) #11
  %10 = load ptr, ptr %3, align 8, !tbaa !3
  %11 = getelementptr inbounds nuw %struct.Clu_Man_t_, ptr %10, i32 0, i32 18
  %12 = load ptr, ptr %11, align 8, !tbaa !8
  %13 = getelementptr inbounds nuw %struct.Cnf_Dat_t_, ptr %12, i32 0, i32 1
  %14 = load i32, ptr %13, align 8, !tbaa !16
  %15 = mul nsw i32 2, %14
  store i32 %15, ptr %6, align 4, !tbaa !21
  %16 = load ptr, ptr %3, align 8, !tbaa !3
  %17 = getelementptr inbounds nuw %struct.Clu_Man_t_, ptr %16, i32 0, i32 15
  %18 = load ptr, ptr %17, align 8, !tbaa !22
  %19 = call ptr @Aig_ManCo(ptr noundef %18, i32 noundef 0)
  store ptr %19, ptr %4, align 8, !tbaa !23
  store i32 0, ptr %8, align 4, !tbaa !21
  br label %20

20:                                               ; preds = %63, %1
  %21 = load i32, ptr %8, align 4, !tbaa !21
  %22 = load ptr, ptr %3, align 8, !tbaa !3
  %23 = getelementptr inbounds nuw %struct.Clu_Man_t_, ptr %22, i32 0, i32 1
  %24 = load i32, ptr %23, align 4, !tbaa !25
  %25 = load ptr, ptr %3, align 8, !tbaa !3
  %26 = getelementptr inbounds nuw %struct.Clu_Man_t_, ptr %25, i32 0, i32 0
  %27 = load i32, ptr %26, align 8, !tbaa !26
  %28 = add nsw i32 %24, %27
  %29 = icmp slt i32 %21, %28
  br i1 %29, label %30, label %66

30:                                               ; preds = %20
  %31 = load i32, ptr %8, align 4, !tbaa !21
  %32 = load i32, ptr %6, align 4, !tbaa !21
  %33 = mul nsw i32 %31, %32
  %34 = load ptr, ptr %3, align 8, !tbaa !3
  %35 = getelementptr inbounds nuw %struct.Clu_Man_t_, ptr %34, i32 0, i32 18
  %36 = load ptr, ptr %35, align 8, !tbaa !8
  %37 = getelementptr inbounds nuw %struct.Cnf_Dat_t_, ptr %36, i32 0, i32 5
  %38 = load ptr, ptr %37, align 8, !tbaa !27
  %39 = load ptr, ptr %4, align 8, !tbaa !23
  %40 = getelementptr inbounds nuw %struct.Aig_Obj_t_, ptr %39, i32 0, i32 5
  %41 = load i32, ptr %40, align 4, !tbaa !28
  %42 = sext i32 %41 to i64
  %43 = getelementptr inbounds i32, ptr %38, i64 %42
  %44 = load i32, ptr %43, align 4, !tbaa !21
  %45 = call i32 @toLitCond(i32 noundef %44, i32 noundef 0)
  %46 = add nsw i32 %33, %45
  %47 = getelementptr inbounds [2 x i32], ptr %5, i64 0, i64 0
  store i32 %46, ptr %47, align 4, !tbaa !21
  %48 = load ptr, ptr %3, align 8, !tbaa !3
  %49 = getelementptr inbounds nuw %struct.Clu_Man_t_, ptr %48, i32 0, i32 17
  %50 = load ptr, ptr %49, align 8, !tbaa !30
  %51 = getelementptr inbounds [2 x i32], ptr %5, i64 0, i64 0
  %52 = getelementptr inbounds [2 x i32], ptr %5, i64 0, i64 0
  %53 = getelementptr inbounds i32, ptr %52, i64 1
  %54 = load ptr, ptr %3, align 8, !tbaa !3
  %55 = getelementptr inbounds nuw %struct.Clu_Man_t_, ptr %54, i32 0, i32 14
  %56 = load i32, ptr %55, align 8, !tbaa !31
  %57 = sext i32 %56 to i64
  %58 = call i32 @sat_solver_solve(ptr noundef %50, ptr noundef %51, ptr noundef %53, i64 noundef %57, i64 noundef 0, i64 noundef 0, i64 noundef 0)
  store i32 %58, ptr %7, align 4, !tbaa !21
  %59 = load i32, ptr %7, align 4, !tbaa !21
  %60 = icmp ne i32 %59, -1
  br i1 %60, label %61, label %62

61:                                               ; preds = %30
  store i32 0, ptr %2, align 4
  store i32 1, ptr %9, align 4
  br label %67

62:                                               ; preds = %30
  br label %63

63:                                               ; preds = %62
  %64 = load i32, ptr %8, align 4, !tbaa !21
  %65 = add nsw i32 %64, 1
  store i32 %65, ptr %8, align 4, !tbaa !21
  br label %20, !llvm.loop !32

66:                                               ; preds = %20
  store i32 1, ptr %2, align 4
  store i32 1, ptr %9, align 4
  br label %67

67:                                               ; preds = %66, %61
  call void @llvm.lifetime.end.p0(i64 4, ptr %8) #11
  call void @llvm.lifetime.end.p0(i64 4, ptr %7) #11
  call void @llvm.lifetime.end.p0(i64 4, ptr %6) #11
  call void @llvm.lifetime.end.p0(i64 8, ptr %5) #11
  call void @llvm.lifetime.end.p0(i64 8, ptr %4) #11
  %68 = load i32, ptr %2, align 4
  ret i32 %68
}