; Function Attrs: nounwind uwtable
define range(i32 0, 2) i32 @Fra_ClausRunBmc(ptr noundef readonly captures(none) %0) local_unnamed_addr #0 {
  %2 = alloca [2 x i32], align 4
  call void @llvm.lifetime.start.p0(i64 8, ptr nonnull %2) #23
  %3 = getelementptr inbounds nuw i8, ptr %0, i64 88
  %4 = load ptr, ptr %3, align 8, !tbaa !3
  %5 = getelementptr inbounds nuw i8, ptr %4, i64 8
  %6 = load i32, ptr %5, align 8, !tbaa !14
  %7 = getelementptr inbounds nuw i8, ptr %0, i64 4
  %8 = load i32, ptr %7, align 4, !tbaa !19
  %9 = load i32, ptr %0, align 8, !tbaa !20
  %10 = add nsw i32 %9, %8
  %11 = icmp sgt i32 %10, 0
  br i1 %11, label %.lr.ph, label %._crit_edge

.lr.ph:                                           ; preds = %1
  %12 = getelementptr inbounds nuw i8, ptr %0, i64 64
  %13 = load ptr, ptr %12, align 8, !tbaa !21
  %14 = getelementptr i8, ptr %13, i64 24
  %.val = load ptr, ptr %14, align 8, !tbaa !22
  %15 = getelementptr i8, ptr %.val, i64 8
  %.val.val = load ptr, ptr %15, align 8, !tbaa !31
  %16 = load ptr, ptr %.val.val, align 8, !tbaa !33
  %17 = getelementptr inbounds nuw i8, ptr %16, i64 36
  %18 = getelementptr inbounds nuw i8, ptr %0, i64 80
  %19 = getelementptr inbounds nuw i8, ptr %2, i64 4
  %20 = getelementptr inbounds nuw i8, ptr %0, i64 56
  br label %27

21:                                               ; preds = %27
  %22 = add nuw nsw i32 %.014, 1
  %23 = load i32, ptr %7, align 4, !tbaa !19
  %24 = load i32, ptr %0, align 8, !tbaa !20
  %25 = add nsw i32 %24, %23
  %26 = icmp slt i32 %22, %25
  br i1 %26, label %27, label %._crit_edge, !llvm.loop !34

27:                                               ; preds = %.lr.ph, %21
  %.014 = phi i32 [ 0, %.lr.ph ], [ %22, %21 ]
  %28 = mul i32 %.014, %6
  %29 = load ptr, ptr %3, align 8, !tbaa !3
  %30 = getelementptr inbounds nuw i8, ptr %29, i64 32
  %31 = load ptr, ptr %30, align 8, !tbaa !36
  %32 = load i32, ptr %17, align 4, !tbaa !37
  %33 = sext i32 %32 to i64
  %34 = getelementptr inbounds i32, ptr %31, i64 %33
  %35 = load i32, ptr %34, align 4, !tbaa !38
  %reass.add = add i32 %35, %28
  %reass.mul = shl i32 %reass.add, 1
  store i32 %reass.mul, ptr %2, align 4, !tbaa !38
  %36 = load ptr, ptr %18, align 8, !tbaa !39
  %37 = load i32, ptr %20, align 8, !tbaa !40
  %38 = sext i32 %37 to i64
  %39 = call i32 @sat_solver_solve(ptr noundef %36, ptr noundef nonnull %2, ptr noundef nonnull %19, i64 noundef %38, i64 noundef 0, i64 noundef 0, i64 noundef 0) #23
  %.not = icmp eq i32 %39, -1
  br i1 %.not, label %21, label %._crit_edge

._crit_edge:                                      ; preds = %27, %21, %1
  %.013 = phi i32 [ 1, %1 ], [ 1, %21 ], [ 0, %27 ]
  call void @llvm.lifetime.end.p0(i64 8, ptr nonnull %2) #23
  ret i32 %.013
}